target datalayout = "e-m:e-p270:32:32-p271:32:32-p272:64:64-i64:64-i128:128-f80:128-n8:16:32:64-S128"
target triple = "x86_64-pc-linux-gnu"

%"class.gmx::StopConditionTime" = type <{ i8, [3 x i8], float, i32, i32, i8, [3 x i8] }>

@stderr = external global ptr, align 8
@.str.1 = private unnamed_addr constant [80 x i8] c"\0AStep %s: Run time exceeded %.3f hours, will terminate the run within %d steps\0A\00", align 1

; Function Attrs: mustprogress nounwind uwtable
define linkonce_odr noundef nonnull align 4 dereferenceable(4) ptr @_ZSt3maxIiERKT_S2_S2_(ptr noundef nonnull align 4 dereferenceable(4) %0, ptr noundef nonnull align 4 dereferenceable(4) %1) #1 comdat {
  %3 = alloca ptr, align 8
  %4 = alloca ptr, align 8
  %5 = alloca ptr, align 8
  store ptr %0, ptr %4, align 8
  store ptr %1, ptr %5, align 8
  %6 = load ptr, ptr %4, align 8
  %7 = load i32, ptr %6, align 4
  %8 = load ptr, ptr %5, align 8
  %9 = load i32, ptr %8, align 4
  %10 = icmp slt i32 %7, %9
  br i1 %10, label %11, label %13

11:                                               ; preds = %2
  %12 = load ptr, ptr %5, align 8
  store ptr %12, ptr %3, align 8
  br label %15

13:                                               ; preds = %2
  %14 = load ptr, ptr %4, align 8
  store ptr %14, ptr %3, align 8
  br label %15

15:                                               ; preds = %13, %11
  %16 = load ptr, ptr %3, align 8
  ret ptr %16
}

; Function Attrs: mustprogress uwtable
define noundef i32 @_ZN3gmx17StopConditionTime9getSignalEblP8_IO_FILEP23gmx_walltime_accounting(ptr noundef nonnull align 4 dereferenceable(20) %0, i1 noundef zeroext %1, i64 noundef %2, ptr noundef %3, ptr noundef %4) #0 align 2 {
  %6 = alloca i32, align 4
  %7 = alloca ptr, align 8
  %8 = alloca i8, align 1
  %9 = alloca i64, align 8
  %10 = alloca ptr, align 8
  %11 = alloca ptr, align 8
  %12 = alloca [22 x i8], align 16
  %13 = alloca i32, align 4
  %14 = alloca i32, align 4
  store ptr %0, ptr %7, align 8
  %15 = zext i1 %1 to i8
  store i8 %15, ptr %8, align 1
  store i64 %2, ptr %9, align 8
  store ptr %3, ptr %10, align 8
  store ptr %4, ptr %11, align 8
  %16 = load ptr, ptr %7, align 8
  %17 = getelementptr inbounds %"class.gmx::StopConditionTime", ptr %16, i32 0, i32 0
  %18 = load i8, ptr %17, align 4
  %19 = trunc i8 %18 to i1
  br i1 %19, label %20, label %21

20:                                               ; preds = %5
  store i32 0, ptr %6, align 4
  br label %71

21:                                               ; preds = %5
  %22 = load i8, ptr %8, align 1
  %23 = trunc i8 %22 to i1
  br i1 %23, label %28, label %24

24:                                               ; preds = %21
  %25 = getelementptr inbounds %"class.gmx::StopConditionTime", ptr %16, i32 0, i32 5
  %26 = load i8, ptr %25, align 4
  %27 = trunc i8 %26 to i1
  br i1 %27, label %28, label %70

28:                                               ; preds = %24, %21
  %29 = load ptr, ptr %11, align 8
  %30 = call noundef double @_Z40walltime_accounting_get_time_since_startP23gmx_walltime_accounting(ptr noundef %29)
  %31 = getelementptr inbounds %"class.gmx::StopConditionTime", ptr %16, i32 0, i32 2
  %32 = load float, ptr %31, align 4
  %33 = fpext float %32 to double
  %34 = fmul double %33, 6.000000e+01
  %35 = fmul double %34, 6.000000e+01
  %36 = fmul double %35, 0x3FEFAE147AE147AE
  %37 = fcmp ogt double %30, %36
  br i1 %37, label %38, label %70

38:                                               ; preds = %28
  %39 = getelementptr inbounds %"class.gmx::StopConditionTime", ptr %16, i32 0, i32 3
  %40 = getelementptr inbounds %"class.gmx::StopConditionTime", ptr %16, i32 0, i32 4
  %41 = load i32, ptr %40, align 4
  %42 = mul nsw i32 2, %41
  store i32 %42, ptr %14, align 4
  %43 = call noundef nonnull align 4 dereferenceable(4) ptr @_ZSt3maxIiERKT_S2_S2_(ptr noundef nonnull align 4 dereferenceable(4) %39, ptr noundef nonnull align 4 dereferenceable(4) %14)
  %44 = load i32, ptr %43, align 4
  store i32 %44, ptr %13, align 4
  %45 = load ptr, ptr %10, align 8
  %46 = icmp ne ptr %45, null
  br i1 %46, label %47, label %58

47:                                               ; preds = %38
  %48 = load ptr, ptr %10, align 8
  %49 = load i64, ptr %9, align 8
  %50 = getelementptr inbounds [22 x i8], ptr %12, i64 0, i64 0
  %51 = call noundef ptr @_Z12gmx_step_strlPc(i64 noundef %49, ptr noundef %50)
  %52 = getelementptr inbounds %"class.gmx::StopConditionTime", ptr %16, i32 0, i32 2
  %53 = load float, ptr %52, align 4
  %54 = fpext float %53 to double
  %55 = fmul double %54, 0x3FEFAE147AE147AE
  %56 = load i32, ptr %13, align 4
  %57 = call i32 (ptr, ptr, ...) @fprintf(ptr noundef %48, ptr noundef @.str.1, ptr noundef %51, double noundef %55, i32 noundef %56) #11
  br label %58

58:                                               ; preds = %47, %38
  %59 = load ptr, ptr @stderr, align 8
  %60 = load i64, ptr %9, align 8
  %61 = getelementptr inbounds [22 x i8], ptr %12, i64 0, i64 0
  %62 = call noundef ptr @_Z12gmx_step_strlPc(i64 noundef %60, ptr noundef %61)
  %63 = getelementptr inbounds %"class.gmx::StopConditionTime", ptr %16, i32 0, i32 2
  %64 = load float, ptr %63, align 4
  %65 = fpext float %64 to double
  %66 = fmul double %65, 0x3FEFAE147AE147AE
  %67 = load i32, ptr %13, align 4
  %68 = call i32 (ptr, ptr, ...) @fprintf(ptr noundef %59, ptr noundef @.str.1, ptr noundef %62, double noundef %66, i32 noundef %67) #11
  %69 = getelementptr inbounds %"class.gmx::StopConditionTime", ptr %16, i32 0, i32 0
  store i8 1, ptr %69, align 4
  store i32 1, ptr %6, align 4
  br label %71

70:                                               ; preds = %28, %24
  store i32 0, ptr %6, align 4
  br label %71

71:                                               ; preds = %70, %58, %20
  %72 = load i32, ptr %6, align 4
  ret i32 %72
}