; Function Attrs: mustprogress uwtable
define noundef i32 @_ZN3gmx17StopConditionTime9getSignalEblP8_IO_FILEP23gmx_walltime_accounting(ptr nocapture noundef nonnull align 4 dereferenceable(20) %0, i1 noundef zeroext %1, i64 noundef %2, ptr noundef %3, ptr noundef %4) local_unnamed_addr #2 align 2 {
  %6 = alloca [22 x i8], align 16
  %7 = load i8, ptr %0, align 4
  %8 = trunc i8 %7 to i1
  br i1 %8, label %42, label %9

9:                                                ; preds = %5
  br i1 %1, label %14, label %10

10:                                               ; preds = %9
  %11 = getelementptr inbounds i8, ptr %0, i64 16
  %12 = load i8, ptr %11, align 4
  %13 = trunc i8 %12 to i1
  br i1 %13, label %14, label %42

14:                                               ; preds = %10, %9
  %15 = tail call noundef double @_Z40walltime_accounting_get_time_since_startP23gmx_walltime_accounting(ptr noundef %4)
  %16 = getelementptr inbounds i8, ptr %0, i64 4
  %17 = load float, ptr %16, align 4
  %18 = fpext float %17 to double
  %19 = fmul double %18, 6.000000e+01
  %20 = fmul double %19, 6.000000e+01
  %21 = fmul double %20, 0x3FEFAE147AE147AE
  %22 = fcmp ogt double %15, %21
  br i1 %22, label %23, label %42

23:                                               ; preds = %14
  %24 = getelementptr inbounds i8, ptr %0, i64 8
  %25 = getelementptr inbounds i8, ptr %0, i64 12
  %26 = load i32, ptr %25, align 4
  %27 = shl nsw i32 %26, 1
  %28 = load i32, ptr %24, align 4
  %.sroa.speculated = tail call i32 @llvm.smax.i32(i32 %28, i32 %27)
  %.not = icmp eq ptr %3, null
  br i1 %.not, label %35, label %29

29:                                               ; preds = %23
  %30 = call noundef ptr @_Z12gmx_step_strlPc(i64 noundef %2, ptr noundef nonnull %6)
  %31 = load float, ptr %16, align 4
  %32 = fpext float %31 to double
  %33 = fmul double %32, 0x3FEFAE147AE147AE
  %34 = call i32 (ptr, ptr, ...) @fprintf(ptr noundef nonnull %3, ptr noundef nonnull @.str.1, ptr noundef %30, double noundef %33, i32 noundef %.sroa.speculated) #15
  br label %35

35:                                               ; preds = %29, %23
  %36 = load ptr, ptr @stderr, align 8
  %37 = call noundef ptr @_Z12gmx_step_strlPc(i64 noundef %2, ptr noundef nonnull %6)
  %38 = load float, ptr %16, align 4
  %39 = fpext float %38 to double
  %40 = fmul double %39, 0x3FEFAE147AE147AE
  %41 = call i32 (ptr, ptr, ...) @fprintf(ptr noundef %36, ptr noundef nonnull @.str.1, ptr noundef %37, double noundef %40, i32 noundef %.sroa.speculated) #16
  store i8 1, ptr %0, align 4
  br label %42

42:                                               ; preds = %10, %14, %5, %35
  %.0 = phi i32 [ 1, %35 ], [ 0, %5 ], [ 0, %14 ], [ 0, %10 ]
  ret i32 %.0
}